target datalayout = "e-m:e-p270:32:32-p271:32:32-p272:64:64-i64:64-i128:128-f80:128-n8:16:32:64-S128"
target triple = "x86_64-pc-linux-gnu"

%"struct.std::_Vector_base" = type { %"struct.std::_Vector_base<t_inpfile, std::allocator<t_inpfile>>::_Vector_impl" }
%"struct.std::_Vector_base<t_inpfile, std::allocator<t_inpfile>>::_Vector_impl" = type { %"struct.std::_Vector_base<t_inpfile, std::allocator<t_inpfile>>::_Vector_impl_data" }
%"struct.std::_Vector_base<t_inpfile, std::allocator<t_inpfile>>::_Vector_impl_data" = type { ptr, ptr, ptr }
%"class.std::__cxx11::basic_string" = type { %"struct.std::__cxx11::basic_string<char>::_Alloc_hider", i64, %union.anon }
%"struct.std::__cxx11::basic_string<char>::_Alloc_hider" = type { ptr }
%union.anon = type { i64, [8 x i8] }
%struct.t_inpfile = type <{ i32, i8, i8, i8, i8, %"class.std::__cxx11::basic_string", %"class.std::__cxx11::basic_string", i32, [4 x i8] }>
%"class.__gnu_cxx::__normal_iterator.18" = type { ptr }
%class.anon.66 = type { i8 }

@.str.14 = private unnamed_addr constant [124 x i8] c"generated/home/dtcxzyw/WorkSpace/Projects/compilers/llvm-opt-benchmark/bench/gromacs/gromacs/src/gromacs/fileio/readinp.cpp\00", align 1
@.str.40 = private unnamed_addr constant [19 x i8] c"newName != nullptr\00", align 1
@.str.41 = private unnamed_addr constant [25 x i8] c"Need a valid char buffer\00", align 1
@"__PRETTY_FUNCTION__._ZZ14setStringEntryPSt6vectorI9t_inpfileSaIS0_EEPKcPcS5_ENK3$_0clEv" = private unnamed_addr constant [121 x i8] c"auto setStringEntry(std::vector<t_inpfile> *, const char *, char *, const char *)::(anonymous class)::operator()() const\00", align 1

; Function Attrs: mustprogress nounwind uwtable
define linkonce_odr void @_ZNSt11char_traitsIcE6assignERcRKc(ptr noundef nonnull align 1 dereferenceable(1) %0, ptr noundef nonnull align 1 dereferenceable(1) %1) #1 comdat align 2 {
  %3 = alloca ptr, align 8
  %4 = alloca ptr, align 8
  store ptr %0, ptr %3, align 8, !tbaa !34
  store ptr %1, ptr %4, align 8, !tbaa !34
  %5 = load ptr, ptr %4, align 8, !tbaa !34
  %6 = load i8, ptr %5, align 1, !tbaa !71
  %7 = load ptr, ptr %3, align 8, !tbaa !34
  store i8 %6, ptr %7, align 1, !tbaa !71
  ret void
}

; Function Attrs: mustprogress nounwind uwtable
define available_externally void @_ZNSt7__cxx1112basic_stringIcSt11char_traitsIcESaIcEE9_M_lengthEm(ptr noundef nonnull align 8 dereferenceable(32) %0, i64 noundef %1) #1 align 2 {
  %3 = alloca ptr, align 8
  %4 = alloca i64, align 8
  store ptr %0, ptr %3, align 8, !tbaa !25
  store i64 %1, ptr %4, align 8, !tbaa !19
  %5 = load ptr, ptr %3, align 8
  %6 = load i64, ptr %4, align 8, !tbaa !19
  %7 = getelementptr inbounds nuw %"class.std::__cxx11::basic_string", ptr %5, i32 0, i32 1
  store i64 %6, ptr %7, align 8, !tbaa !62
  ret void
}

; Function Attrs: mustprogress nounwind uwtable
define linkonce_odr void @_ZN9__gnu_cxx17__normal_iteratorIP9t_inpfileSt6vectorIS1_SaIS1_EEEC2ERKS2_(ptr noundef nonnull align 8 dereferenceable(8) %0, ptr noundef nonnull align 8 dereferenceable(8) %1) unnamed_addr #1 comdat align 2 {
  %3 = alloca ptr, align 8
  %4 = alloca ptr, align 8
  store ptr %0, ptr %3, align 8, !tbaa !116
  store ptr %1, ptr %4, align 8, !tbaa !118
  %5 = load ptr, ptr %3, align 8
  %6 = getelementptr inbounds nuw %"class.__gnu_cxx::__normal_iterator.18", ptr %5, i32 0, i32 0
  %7 = load ptr, ptr %4, align 8, !tbaa !118
  %8 = load ptr, ptr %7, align 8, !tbaa !103
  store ptr %8, ptr %6, align 8, !tbaa !120
  ret void
}

; Function Attrs: mustprogress nounwind uwtable
define available_externally noundef ptr @_ZNKSt7__cxx1112basic_stringIcSt11char_traitsIcESaIcEE7_M_dataEv(ptr noundef nonnull align 8 dereferenceable(32) %0) #1 align 2 {
  %2 = alloca ptr, align 8
  store ptr %0, ptr %2, align 8, !tbaa !25
  %3 = load ptr, ptr %2, align 8
  %4 = getelementptr inbounds nuw %"class.std::__cxx11::basic_string", ptr %3, i32 0, i32 0
  %5 = getelementptr inbounds nuw %"struct.std::__cxx11::basic_string<char>::_Alloc_hider", ptr %4, i32 0, i32 0
  %6 = load ptr, ptr %5, align 8, !tbaa !70
  ret ptr %6
}

; Function Attrs: noinline noreturn nounwind uwtable
define linkonce_odr hidden void @__clang_call_terminate(ptr noundef %0) #9 comdat {
  %2 = call ptr @__cxa_begin_catch(ptr %0) #17
  call void @_ZSt9terminatev() #18
  unreachable
}

; Function Attrs: mustprogress uwtable
define available_externally void @_ZNSt7__cxx1112basic_stringIcSt11char_traitsIcESaIcEE13_M_set_lengthEm(ptr noundef nonnull align 8 dereferenceable(32) %0, i64 noundef %1) #0 align 2 {
  %3 = alloca ptr, align 8
  %4 = alloca i64, align 8
  %5 = alloca i8, align 1
  store ptr %0, ptr %3, align 8, !tbaa !25
  store i64 %1, ptr %4, align 8, !tbaa !19
  %6 = load ptr, ptr %3, align 8
  %7 = load i64, ptr %4, align 8, !tbaa !19
  call void @_ZNSt7__cxx1112basic_stringIcSt11char_traitsIcESaIcEE9_M_lengthEm(ptr noundef nonnull align 8 dereferenceable(32) %6, i64 noundef %7)
  %8 = call noundef ptr @_ZNKSt7__cxx1112basic_stringIcSt11char_traitsIcESaIcEE7_M_dataEv(ptr noundef nonnull align 8 dereferenceable(32) %6)
  %9 = load i64, ptr %4, align 8, !tbaa !19
  %10 = getelementptr inbounds nuw i8, ptr %8, i64 %9
  call void @llvm.lifetime.start.p0(i64 1, ptr %5) #17
  store i8 0, ptr %5, align 1, !tbaa !71
  call void @_ZNSt11char_traitsIcE6assignERcRKc(ptr noundef nonnull align 1 dereferenceable(1) %10, ptr noundef nonnull align 1 dereferenceable(1) %5) #17
  call void @llvm.lifetime.end.p0(i64 1, ptr %5) #17
  ret void
}

; Function Attrs: mustprogress nounwind uwtable
define linkonce_odr noundef i64 @_ZNSt11char_traitsIcE6lengthEPKc(ptr noundef %0) #1 comdat align 2 {
  %2 = alloca ptr, align 8
  store ptr %0, ptr %2, align 8, !tbaa !34
  %3 = load ptr, ptr %2, align 8, !tbaa !34
  %4 = call i64 @strlen(ptr noundef %3) #17
  ret i64 %4
}

; Function Attrs: mustprogress nounwind uwtable
define available_externally noundef i64 @_ZNKSt7__cxx1112basic_stringIcSt11char_traitsIcESaIcEE4sizeEv(ptr noundef nonnull align 8 dereferenceable(32) %0) #1 align 2 {
  %2 = alloca ptr, align 8
  store ptr %0, ptr %2, align 8, !tbaa !25
  %3 = load ptr, ptr %2, align 8
  %4 = getelementptr inbounds nuw %"class.std::__cxx11::basic_string", ptr %3, i32 0, i32 1
  %5 = load i64, ptr %4, align 8, !tbaa !62
  ret i64 %5
}

; Function Attrs: mustprogress nounwind uwtable
define linkonce_odr noundef nonnull align 8 dereferenceable(76) ptr @_ZNK9__gnu_cxx17__normal_iteratorIP9t_inpfileSt6vectorIS1_SaIS1_EEEdeEv(ptr noundef nonnull align 8 dereferenceable(8) %0) #1 comdat align 2 {
  %2 = alloca ptr, align 8
  store ptr %0, ptr %2, align 8, !tbaa !116
  %3 = load ptr, ptr %2, align 8
  %4 = getelementptr inbounds nuw %"class.__gnu_cxx::__normal_iterator.18", ptr %3, i32 0, i32 0
  %5 = load ptr, ptr %4, align 8, !tbaa !120
  ret ptr %5
}

; Function Attrs: mustprogress nounwind uwtable
define linkonce_odr ptr @_ZNK9__gnu_cxx17__normal_iteratorIP9t_inpfileSt6vectorIS1_SaIS1_EEEmiEl(ptr noundef nonnull align 8 dereferenceable(8) %0, i64 noundef %1) #1 comdat align 2 {
  %3 = alloca %"class.__gnu_cxx::__normal_iterator.18", align 8
  %4 = alloca ptr, align 8
  %5 = alloca i64, align 8
  %6 = alloca ptr, align 8
  store ptr %0, ptr %4, align 8, !tbaa !116
  store i64 %1, ptr %5, align 8, !tbaa !19
  %7 = load ptr, ptr %4, align 8
  call void @llvm.lifetime.start.p0(i64 8, ptr %6) #17
  %8 = getelementptr inbounds nuw %"class.__gnu_cxx::__normal_iterator.18", ptr %7, i32 0, i32 0
  %9 = load ptr, ptr %8, align 8, !tbaa !120
  %10 = load i64, ptr %5, align 8, !tbaa !19
  %11 = sub i64 0, %10
  %12 = getelementptr inbounds %struct.t_inpfile, ptr %9, i64 %11
  store ptr %12, ptr %6, align 8, !tbaa !103
  call void @_ZN9__gnu_cxx17__normal_iteratorIP9t_inpfileSt6vectorIS1_SaIS1_EEEC2ERKS2_(ptr noundef nonnull align 8 dereferenceable(8) %3, ptr noundef nonnull align 8 dereferenceable(8) %6) #17
  call void @llvm.lifetime.end.p0(i64 8, ptr %6) #17
  %13 = getelementptr inbounds nuw %"class.__gnu_cxx::__normal_iterator.18", ptr %3, i32 0, i32 0
  %14 = load ptr, ptr %13, align 8
  ret ptr %14
}

; Function Attrs: mustprogress nounwind uwtable
define linkonce_odr ptr @_ZNSt6vectorI9t_inpfileSaIS0_EE3endEv(ptr noundef nonnull align 8 dereferenceable(24) %0) #1 comdat align 2 {
  %2 = alloca %"class.__gnu_cxx::__normal_iterator.18", align 8
  %3 = alloca ptr, align 8
  store ptr %0, ptr %3, align 8, !tbaa !23
  %4 = load ptr, ptr %3, align 8
  %5 = getelementptr inbounds nuw %"struct.std::_Vector_base", ptr %4, i32 0, i32 0
  %6 = getelementptr inbounds nuw %"struct.std::_Vector_base<t_inpfile, std::allocator<t_inpfile>>::_Vector_impl_data", ptr %5, i32 0, i32 1
  call void @_ZN9__gnu_cxx17__normal_iteratorIP9t_inpfileSt6vectorIS1_SaIS1_EEEC2ERKS2_(ptr noundef nonnull align 8 dereferenceable(8) %2, ptr noundef nonnull align 8 dereferenceable(8) %6) #17
  %7 = getelementptr inbounds nuw %"class.__gnu_cxx::__normal_iterator.18", ptr %2, i32 0, i32 0
  %8 = load ptr, ptr %7, align 8
  ret ptr %8
}

; Function Attrs: mustprogress nounwind uwtable
define available_externally noundef ptr @_ZNKSt7__cxx1112basic_stringIcSt11char_traitsIcESaIcEE5c_strEv(ptr noundef nonnull align 8 dereferenceable(32) %0) #1 align 2 {
  %2 = alloca ptr, align 8
  store ptr %0, ptr %2, align 8, !tbaa !25
  %3 = load ptr, ptr %2, align 8
  %4 = call noundef ptr @_ZNKSt7__cxx1112basic_stringIcSt11char_traitsIcESaIcEE7_M_dataEv(ptr noundef nonnull align 8 dereferenceable(32) %3)
  ret ptr %4
}

; Function Attrs: mustprogress nounwind uwtable
define linkonce_odr noundef nonnull align 8 dereferenceable(76) ptr @_ZNSt6vectorI9t_inpfileSaIS0_EEixEm(ptr noundef nonnull align 8 dereferenceable(24) %0, i64 noundef %1) #1 comdat align 2 {
  %3 = alloca ptr, align 8
  %4 = alloca i64, align 8
  store ptr %0, ptr %3, align 8, !tbaa !23
  store i64 %1, ptr %4, align 8, !tbaa !19
  %5 = load ptr, ptr %3, align 8
  %6 = getelementptr inbounds nuw %"struct.std::_Vector_base", ptr %5, i32 0, i32 0
  %7 = getelementptr inbounds nuw %"struct.std::_Vector_base<t_inpfile, std::allocator<t_inpfile>>::_Vector_impl_data", ptr %6, i32 0, i32 0
  %8 = load ptr, ptr %7, align 8, !tbaa !47
  %9 = load i64, ptr %4, align 8, !tbaa !19
  %10 = getelementptr inbounds nuw %struct.t_inpfile, ptr %8, i64 %9
  ret ptr %10
}

; Function Attrs: mustprogress nounwind uwtable
define available_externally void @_ZNSt7__cxx1112basic_stringIcSt11char_traitsIcESaIcEE5clearEv(ptr noundef nonnull align 8 dereferenceable(32) %0) #1 align 2 personality ptr @__gxx_personality_v0 {
  %2 = alloca ptr, align 8
  store ptr %0, ptr %2, align 8, !tbaa !25
  %3 = load ptr, ptr %2, align 8
  invoke void @_ZNSt7__cxx1112basic_stringIcSt11char_traitsIcESaIcEE13_M_set_lengthEm(ptr noundef nonnull align 8 dereferenceable(32) %3, i64 noundef 0)
          to label %4 unwind label %5

4:                                                ; preds = %1
  ret void

5:                                                ; preds = %1
  %6 = landingpad { ptr, i32 }
          catch ptr null
  %7 = extractvalue { ptr, i32 } %6, 0
  call void @__clang_call_terminate(ptr %7) #18
  unreachable
}

; Function Attrs: mustprogress uwtable
define available_externally noundef nonnull align 8 dereferenceable(32) ptr @_ZNSt7__cxx1112basic_stringIcSt11char_traitsIcESaIcEE6assignEPKc(ptr noundef nonnull align 8 dereferenceable(32) %0, ptr noundef %1) #0 align 2 {
  %3 = alloca ptr, align 8
  %4 = alloca ptr, align 8
  store ptr %0, ptr %3, align 8, !tbaa !25
  store ptr %1, ptr %4, align 8, !tbaa !34
  %5 = load ptr, ptr %3, align 8
  %6 = call noundef i64 @_ZNKSt7__cxx1112basic_stringIcSt11char_traitsIcESaIcEE4sizeEv(ptr noundef nonnull align 8 dereferenceable(32) %5) #17
  %7 = load ptr, ptr %4, align 8, !tbaa !34
  %8 = load ptr, ptr %4, align 8, !tbaa !34
  %9 = call noundef i64 @_ZNSt11char_traitsIcE6lengthEPKc(ptr noundef %8)
  %10 = call noundef nonnull align 8 dereferenceable(32) ptr @_ZNSt7__cxx1112basic_stringIcSt11char_traitsIcESaIcEE10_M_replaceEmmPKcm(ptr noundef nonnull align 8 dereferenceable(32) %5, i64 noundef 0, i64 noundef %6, ptr noundef %7, i64 noundef %9)
  ret ptr %10
}

; Function Attrs: mustprogress nounwind uwtable
define linkonce_odr noundef nonnull align 8 dereferenceable(76) ptr @_ZNSt6vectorI9t_inpfileSaIS0_EE4backEv(ptr noundef nonnull align 8 dereferenceable(24) %0) #1 comdat align 2 {
  %2 = alloca ptr, align 8
  %3 = alloca %"class.__gnu_cxx::__normal_iterator.18", align 8
  %4 = alloca %"class.__gnu_cxx::__normal_iterator.18", align 8
  store ptr %0, ptr %2, align 8, !tbaa !23
  %5 = load ptr, ptr %2, align 8
  call void @llvm.lifetime.start.p0(i64 8, ptr %3) #17
  call void @llvm.lifetime.start.p0(i64 8, ptr %4) #17
  %6 = call ptr @_ZNSt6vectorI9t_inpfileSaIS0_EE3endEv(ptr noundef nonnull align 8 dereferenceable(24) %5) #17
  %7 = getelementptr inbounds nuw %"class.__gnu_cxx::__normal_iterator.18", ptr %4, i32 0, i32 0
  store ptr %6, ptr %7, align 8
  %8 = call ptr @_ZNK9__gnu_cxx17__normal_iteratorIP9t_inpfileSt6vectorIS1_SaIS1_EEEmiEl(ptr noundef nonnull align 8 dereferenceable(8) %4, i64 noundef 1) #17
  %9 = getelementptr inbounds nuw %"class.__gnu_cxx::__normal_iterator.18", ptr %3, i32 0, i32 0
  store ptr %8, ptr %9, align 8
  %10 = call noundef nonnull align 8 dereferenceable(76) ptr @_ZNK9__gnu_cxx17__normal_iteratorIP9t_inpfileSt6vectorIS1_SaIS1_EEEdeEv(ptr noundef nonnull align 8 dereferenceable(8) %3) #17
  call void @llvm.lifetime.end.p0(i64 8, ptr %4) #17
  call void @llvm.lifetime.end.p0(i64 8, ptr %3) #17
  ret ptr %10
}

; Function Attrs: mustprogress uwtable
define noundef ptr @_Z8get_estrPSt6vectorI9t_inpfileSaIS0_EEPKcS5_(ptr noundef %0, ptr noundef %1, ptr noundef %2) #0 {
  %4 = alloca ptr, align 8
  %5 = alloca ptr, align 8
  %6 = alloca ptr, align 8
  %7 = alloca ptr, align 8
  %8 = alloca ptr, align 8
  %9 = alloca i32, align 4
  %10 = alloca i32, align 4
  store ptr %0, ptr %5, align 8, !tbaa !23
  store ptr %1, ptr %6, align 8, !tbaa !34
  store ptr %2, ptr %7, align 8, !tbaa !34
  call void @llvm.lifetime.start.p0(i64 8, ptr %8) #17
  %11 = load ptr, ptr %5, align 8, !tbaa !23
  store ptr %11, ptr %8, align 8, !tbaa !23
  call void @llvm.lifetime.start.p0(i64 4, ptr %9) #17
  %12 = load ptr, ptr %5, align 8, !tbaa !23
  %13 = load ptr, ptr %6, align 8, !tbaa !34
  %14 = call noundef i32 @_Z8get_einpPSt6vectorI9t_inpfileSaIS0_EEPKc(ptr noundef %12, ptr noundef %13)
  store i32 %14, ptr %9, align 4, !tbaa !15
  %15 = load i32, ptr %9, align 4, !tbaa !15
  %16 = icmp eq i32 %15, -1
  br i1 %16, label %17, label %32

17:                                               ; preds = %3
  %18 = load ptr, ptr %7, align 8, !tbaa !34
  %19 = icmp ne ptr %18, null
  br i1 %19, label %20, label %26

20:                                               ; preds = %17
  %21 = load ptr, ptr %8, align 8, !tbaa !23
  %22 = call noundef nonnull align 8 dereferenceable(76) ptr @_ZNSt6vectorI9t_inpfileSaIS0_EE4backEv(ptr noundef nonnull align 8 dereferenceable(24) %21) #17
  %23 = getelementptr inbounds nuw %struct.t_inpfile, ptr %22, i32 0, i32 6
  %24 = load ptr, ptr %7, align 8, !tbaa !34
  %25 = call noundef nonnull align 8 dereferenceable(32) ptr @_ZNSt7__cxx1112basic_stringIcSt11char_traitsIcESaIcEE6assignEPKc(ptr noundef nonnull align 8 dereferenceable(32) %23, ptr noundef %24)
  br label %30

26:                                               ; preds = %17
  %27 = load ptr, ptr %8, align 8, !tbaa !23
  %28 = call noundef nonnull align 8 dereferenceable(76) ptr @_ZNSt6vectorI9t_inpfileSaIS0_EE4backEv(ptr noundef nonnull align 8 dereferenceable(24) %27) #17
  %29 = getelementptr inbounds nuw %struct.t_inpfile, ptr %28, i32 0, i32 6
  call void @_ZNSt7__cxx1112basic_stringIcSt11char_traitsIcESaIcEE5clearEv(ptr noundef nonnull align 8 dereferenceable(32) %29) #17
  br label %30

30:                                               ; preds = %26, %20
  %31 = load ptr, ptr %7, align 8, !tbaa !34
  store ptr %31, ptr %4, align 8
  store i32 1, ptr %10, align 4
  br label %39

32:                                               ; preds = %3
  %33 = load ptr, ptr %8, align 8, !tbaa !23
  %34 = load i32, ptr %9, align 4, !tbaa !15
  %35 = sext i32 %34 to i64
  %36 = call noundef nonnull align 8 dereferenceable(76) ptr @_ZNSt6vectorI9t_inpfileSaIS0_EEixEm(ptr noundef nonnull align 8 dereferenceable(24) %33, i64 noundef %35) #17
  %37 = getelementptr inbounds nuw %struct.t_inpfile, ptr %36, i32 0, i32 6
  %38 = call noundef ptr @_ZNKSt7__cxx1112basic_stringIcSt11char_traitsIcESaIcEE5c_strEv(ptr noundef nonnull align 8 dereferenceable(32) %37) #17
  store ptr %38, ptr %4, align 8
  store i32 1, ptr %10, align 4
  br label %39

39:                                               ; preds = %32, %30
  call void @llvm.lifetime.end.p0(i64 4, ptr %9) #17
  call void @llvm.lifetime.end.p0(i64 8, ptr %8) #17
  %40 = load ptr, ptr %4, align 8
  ret ptr %40
}

; Function Attrs: inlinehint mustprogress uwtable
define internal void @"_ZZ14setStringEntryPSt6vectorI9t_inpfileSaIS0_EEPKcPcS5_ENK3$_0clEv"(ptr noundef nonnull align 1 dereferenceable(1) %0) #4 align 2 {
  %2 = alloca ptr, align 8
  store ptr %0, ptr %2, align 8, !tbaa !33
  call void @_ZN3gmx8internal13assertHandlerEPKcS2_S2_S2_i(ptr noundef @.str.40, ptr noundef @.str.41, ptr noundef @"__PRETTY_FUNCTION__._ZZ14setStringEntryPSt6vectorI9t_inpfileSaIS0_EEPKcPcS5_ENK3$_0clEv", ptr noundef @.str.14, i32 noundef 567) #19
  unreachable
}

; Function Attrs: mustprogress uwtable
define void @_Z14setStringEntryPSt6vectorI9t_inpfileSaIS0_EEPKcPcS5_(ptr noundef %0, ptr noundef %1, ptr noundef %2, ptr noundef %3) #0 {
  %5 = alloca ptr, align 8
  %6 = alloca ptr, align 8
  %7 = alloca ptr, align 8
  %8 = alloca ptr, align 8
  %9 = alloca %class.anon.66, align 1
  %10 = alloca ptr, align 8
  store ptr %0, ptr %5, align 8, !tbaa !23
  store ptr %1, ptr %6, align 8, !tbaa !34
  store ptr %2, ptr %7, align 8, !tbaa !34
  store ptr %3, ptr %8, align 8, !tbaa !34
  %11 = load ptr, ptr %7, align 8, !tbaa !34
  %12 = icmp ne ptr %11, null
  call void @llvm.lifetime.start.p0(i64 1, ptr %9) #17
  br i1 %12, label %13, label %14

13:                                               ; preds = %4
  br label %15

14:                                               ; preds = %4
  call void @"_ZZ14setStringEntryPSt6vectorI9t_inpfileSaIS0_EEPKcPcS5_ENK3$_0clEv"(ptr noundef nonnull align 1 dereferenceable(1) %9)
  br label %15

15:                                               ; preds = %14, %13
  call void @llvm.lifetime.end.p0(i64 1, ptr %9) #17
  call void @llvm.lifetime.start.p0(i64 8, ptr %10) #17
  store ptr null, ptr %10, align 8, !tbaa !34
  %16 = load ptr, ptr %5, align 8, !tbaa !23
  %17 = load ptr, ptr %6, align 8, !tbaa !34
  %18 = load ptr, ptr %8, align 8, !tbaa !34
  %19 = call noundef ptr @_Z8get_estrPSt6vectorI9t_inpfileSaIS0_EEPKcS5_(ptr noundef %16, ptr noundef %17, ptr noundef %18)
  store ptr %19, ptr %10, align 8, !tbaa !34
  %20 = load ptr, ptr %10, align 8, !tbaa !34
  %21 = icmp ne ptr %20, null
  br i1 %21, label %22, label %26

22:                                               ; preds = %15
  %23 = load ptr, ptr %7, align 8, !tbaa !34
  %24 = load ptr, ptr %10, align 8, !tbaa !34
  %25 = call ptr @strcpy(ptr noundef %23, ptr noundef %24) #17
  br label %26

26:                                               ; preds = %22, %15
  call void @llvm.lifetime.end.p0(i64 8, ptr %10) #17
  ret void
}