; Function Attrs: mustprogress uwtable
define void @_Z14setStringEntryPSt6vectorI9t_inpfileSaIS0_EEPKcPcS5_(ptr noundef %0, ptr noundef %1, ptr noundef %2, ptr noundef %3) local_unnamed_addr #0 personality ptr @__gxx_personality_v0 {
  %.not = icmp eq ptr %2, null
  br i1 %.not, label %5, label %6

5:                                                ; preds = %4
  tail call void @_ZN3gmx8internal13assertHandlerEPKcS2_S2_S2_i(ptr noundef nonnull @.str.40, ptr noundef nonnull @.str.41, ptr noundef nonnull @"__PRETTY_FUNCTION__._ZZ14setStringEntryPSt6vectorI9t_inpfileSaIS0_EEPKcPcS5_ENK3$_0clEv", ptr noundef nonnull @.str.14, i32 noundef 567) #24
  unreachable

6:                                                ; preds = %4
  %7 = tail call noundef i32 @_Z8get_einpPSt6vectorI9t_inpfileSaIS0_EEPKc(ptr noundef %0, ptr noundef %1)
  %8 = icmp eq i32 %7, -1
  br i1 %8, label %9, label %_Z8get_estrPSt6vectorI9t_inpfileSaIS0_EEPKcS5_.exit

9:                                                ; preds = %6
  %.not.i = icmp eq ptr %3, null
  %10 = getelementptr inbounds nuw i8, ptr %0, i64 8
  %11 = load ptr, ptr %10, align 8, !tbaa !143
  %12 = getelementptr inbounds i8, ptr %11, i64 -40
  %13 = getelementptr inbounds i8, ptr %11, i64 -32
  br i1 %.not.i, label %_Z8get_estrPSt6vectorI9t_inpfileSaIS0_EEPKcS5_.exit.thread, label %_Z8get_estrPSt6vectorI9t_inpfileSaIS0_EEPKcS5_.exit.thread10

_Z8get_estrPSt6vectorI9t_inpfileSaIS0_EEPKcS5_.exit.thread10: ; preds = %9
  %14 = load i64, ptr %13, align 8, !tbaa !21
  %15 = tail call noundef i64 @strlen(ptr noundef nonnull dereferenceable(1) %3) #23
  %16 = tail call noundef nonnull align 8 dereferenceable(32) ptr @_ZNSt7__cxx1112basic_stringIcSt11char_traitsIcESaIcEE10_M_replaceEmmPKcm(ptr noundef nonnull align 8 dereferenceable(32) %12, i64 noundef 0, i64 noundef %14, ptr noundef nonnull %3, i64 noundef %15)
  br label %22

_Z8get_estrPSt6vectorI9t_inpfileSaIS0_EEPKcS5_.exit.thread: ; preds = %9
  store i64 0, ptr %13, align 8, !tbaa !21
  %17 = load ptr, ptr %12, align 8, !tbaa !15
  store i8 0, ptr %17, align 1, !tbaa !24
  br label %24

_Z8get_estrPSt6vectorI9t_inpfileSaIS0_EEPKcS5_.exit: ; preds = %6
  %18 = sext i32 %7 to i64
  %19 = load ptr, ptr %0, align 8, !tbaa !36
  %20 = getelementptr inbounds nuw %struct.t_inpfile, ptr %19, i64 %18, i32 6
  %21 = load ptr, ptr %20, align 8, !tbaa !15
  %.not7 = icmp eq ptr %21, null
  br i1 %.not7, label %24, label %22

22:                                               ; preds = %_Z8get_estrPSt6vectorI9t_inpfileSaIS0_EEPKcS5_.exit.thread10, %_Z8get_estrPSt6vectorI9t_inpfileSaIS0_EEPKcS5_.exit
  %.0.i13 = phi ptr [ %3, %_Z8get_estrPSt6vectorI9t_inpfileSaIS0_EEPKcS5_.exit.thread10 ], [ %21, %_Z8get_estrPSt6vectorI9t_inpfileSaIS0_EEPKcS5_.exit ]
  %23 = tail call ptr @strcpy(ptr noundef nonnull dereferenceable(1) %2, ptr noundef nonnull dereferenceable(1) %.0.i13) #23
  br label %24

24:                                               ; preds = %_Z8get_estrPSt6vectorI9t_inpfileSaIS0_EEPKcS5_.exit.thread, %22, %_Z8get_estrPSt6vectorI9t_inpfileSaIS0_EEPKcS5_.exit
  ret void
}